; Function Attrs: mustprogress uwtable
define void @cvMinMaxLoc(ptr noundef %0, ptr noundef %1, ptr noundef %2, ptr noundef %3, ptr noundef %4, ptr noundef %5) local_unnamed_addr #0 personality ptr @__gxx_personality_v0 {
  %7 = alloca %"class.cv::Mat", align 8
  %8 = alloca %"class.cv::Mat", align 8
  %9 = alloca %"class.cv::Mat", align 8
  %10 = alloca %"class.cv::_OutputArray", align 8
  %11 = alloca %"class.cv::_InputArray", align 8
  %12 = alloca %"class.cv::_InputArray", align 8
  call void @llvm.lifetime.start.p0(i64 96, ptr nonnull %7) #9
  call void @_ZN2cv3MatC1Ev(ptr noundef nonnull align 8 dereferenceable(96) %7) #9
  call void @llvm.lifetime.start.p0(i64 96, ptr nonnull %8) #9
  invoke void @_ZN2cv10cvarrToMatEPKvbbiPNS_10AutoBufferIdLm136EEE(ptr dead_on_unwind nonnull writable sret(%"class.cv::Mat") align 8 %8, ptr noundef %0, i1 noundef zeroext false, i1 noundef zeroext true, i32 noundef 1, ptr noundef null)
          to label %13 unwind label %18

13:                                               ; preds = %6
  %.not = icmp eq ptr %5, null
  br i1 %.not, label %25, label %14

14:                                               ; preds = %13
  call void @llvm.lifetime.start.p0(i64 96, ptr nonnull %9) #9
  invoke void @_ZN2cv10cvarrToMatEPKvbbiPNS_10AutoBufferIdLm136EEE(ptr dead_on_unwind nonnull writable sret(%"class.cv::Mat") align 8 %9, ptr noundef nonnull %5, i1 noundef zeroext false, i1 noundef zeroext true, i32 noundef 0, ptr noundef null)
          to label %15 unwind label %20

15:                                               ; preds = %14
  %16 = invoke noundef nonnull align 8 dereferenceable(96) ptr @_ZN2cv3MataSEOS0_(ptr noundef nonnull align 8 dereferenceable(96) %7, ptr noundef nonnull align 8 dereferenceable(96) %9)
          to label %17 unwind label %22

17:                                               ; preds = %15
  call void @_ZN2cv3MatD1Ev(ptr noundef nonnull align 8 dereferenceable(96) %9) #9
  call void @llvm.lifetime.end.p0(i64 96, ptr nonnull %9) #9
  br label %25

18:                                               ; preds = %6
  %19 = landingpad { ptr, i32 }
          cleanup
  br label %45

20:                                               ; preds = %14
  %21 = landingpad { ptr, i32 }
          cleanup
  br label %24

22:                                               ; preds = %15
  %23 = landingpad { ptr, i32 }
          cleanup
  call void @_ZN2cv3MatD1Ev(ptr noundef nonnull align 8 dereferenceable(96) %9) #9
  br label %24

24:                                               ; preds = %22, %20
  %.pn = phi { ptr, i32 } [ %23, %22 ], [ %21, %20 ]
  call void @llvm.lifetime.end.p0(i64 96, ptr nonnull %9) #9
  br label %44

25:                                               ; preds = %17, %13
  %26 = load i32, ptr %8, align 8, !tbaa !30
  %27 = and i32 %26, 4088
  %.not24 = icmp eq i32 %27, 0
  br i1 %.not24, label %34, label %28

28:                                               ; preds = %25
  call void @llvm.lifetime.start.p0(i64 24, ptr nonnull %10) #9
  %29 = getelementptr inbounds nuw i8, ptr %10, i64 8
  %30 = getelementptr inbounds nuw i8, ptr %10, i64 16
  store i64 0, ptr %30, align 8
  store i32 33619968, ptr %10, align 8, !tbaa !9
  store ptr %8, ptr %29, align 8, !tbaa !12
  invoke void @_ZN2cv15extractImageCOIEPKvRKNS_12_OutputArrayEi(ptr noundef %0, ptr noundef nonnull align 8 dereferenceable(24) %10, i32 noundef -1)
          to label %31 unwind label %32

31:                                               ; preds = %28
  call void @llvm.lifetime.end.p0(i64 24, ptr nonnull %10) #9
  br label %34

32:                                               ; preds = %28
  %33 = landingpad { ptr, i32 }
          cleanup
  call void @llvm.lifetime.end.p0(i64 24, ptr nonnull %10) #9
  br label %44

34:                                               ; preds = %31, %25
  call void @llvm.lifetime.start.p0(i64 24, ptr nonnull %11) #9
  %35 = getelementptr inbounds nuw i8, ptr %11, i64 16
  store i32 0, ptr %35, align 8, !tbaa !3
  %36 = getelementptr inbounds nuw i8, ptr %11, i64 20
  store i32 0, ptr %36, align 4, !tbaa !8
  store i32 16842752, ptr %11, align 8, !tbaa !9
  %37 = getelementptr inbounds nuw i8, ptr %11, i64 8
  store ptr %8, ptr %37, align 8, !tbaa !12
  call void @llvm.lifetime.start.p0(i64 24, ptr nonnull %12) #9
  %38 = getelementptr inbounds nuw i8, ptr %12, i64 16
  store i32 0, ptr %38, align 8, !tbaa !3
  %39 = getelementptr inbounds nuw i8, ptr %12, i64 20
  store i32 0, ptr %39, align 4, !tbaa !8
  store i32 16842752, ptr %12, align 8, !tbaa !9
  %40 = getelementptr inbounds nuw i8, ptr %12, i64 8
  store ptr %7, ptr %40, align 8, !tbaa !12
  invoke void @_ZN2cv9minMaxLocERKNS_11_InputArrayEPdS3_PNS_6Point_IiEES6_S2_(ptr noundef nonnull align 8 dereferenceable(24) %11, ptr noundef %1, ptr noundef %2, ptr noundef %3, ptr noundef %4, ptr noundef nonnull align 8 dereferenceable(24) %12)
          to label %41 unwind label %42

41:                                               ; preds = %34
  call void @llvm.lifetime.end.p0(i64 24, ptr nonnull %12) #9
  call void @llvm.lifetime.end.p0(i64 24, ptr nonnull %11) #9
  call void @_ZN2cv3MatD1Ev(ptr noundef nonnull align 8 dereferenceable(96) %8) #9
  call void @llvm.lifetime.end.p0(i64 96, ptr nonnull %8) #9
  call void @_ZN2cv3MatD1Ev(ptr noundef nonnull align 8 dereferenceable(96) %7) #9
  call void @llvm.lifetime.end.p0(i64 96, ptr nonnull %7) #9
  ret void

42:                                               ; preds = %34
  %43 = landingpad { ptr, i32 }
          cleanup
  call void @llvm.lifetime.end.p0(i64 24, ptr nonnull %12) #9
  call void @llvm.lifetime.end.p0(i64 24, ptr nonnull %11) #9
  br label %44

44:                                               ; preds = %42, %32, %24
  %.pn19.pn.pn = phi { ptr, i32 } [ %43, %42 ], [ %33, %32 ], [ %.pn, %24 ]
  call void @_ZN2cv3MatD1Ev(ptr noundef nonnull align 8 dereferenceable(96) %8) #9
  br label %45

45:                                               ; preds = %44, %18
  %.pn19.pn.pn.pn = phi { ptr, i32 } [ %.pn19.pn.pn, %44 ], [ %19, %18 ]
  call void @llvm.lifetime.end.p0(i64 96, ptr nonnull %8) #9
  call void @_ZN2cv3MatD1Ev(ptr noundef nonnull align 8 dereferenceable(96) %7) #9
  call void @llvm.lifetime.end.p0(i64 96, ptr nonnull %7) #9
  resume { ptr, i32 } %.pn19.pn.pn.pn
}